; Function Attrs: mustprogress uwtable
define hidden void @_ZNK7grobner7copy_toERK13obj_hashtableINS_8equationEER10ptr_vectorIS1_E(ptr nocapture noundef nonnull readnone align 8 dereferenceable(228) %this, ptr nocapture noundef nonnull readonly align 8 dereferenceable(20) %s, ptr noundef nonnull align 8 dereferenceable(8) %result) local_unnamed_addr #3 align 2 {
entry:
  %0 = load ptr, ptr %s, align 8
  %m_capacity.i = getelementptr inbounds i8, ptr %s, i64 8
  %1 = load i32, ptr %m_capacity.i, align 8
  %idx.ext.i = zext i32 %1 to i64
  %add.ptr.i = getelementptr inbounds %class.obj_hash_entry, ptr %0, i64 %idx.ext.i
  %cmp.not2.i.i.i = icmp eq i32 %1, 0
  br i1 %cmp.not2.i.i.i, label %_ZNK14core_hashtableI14obj_hash_entryIN7grobner8equationEE12obj_ptr_hashIS2_E6ptr_eqIS2_EE5beginEv.exit, label %land.rhs.i.i.i

land.rhs.i.i.i:                                   ; preds = %entry, %while.body.i.i.i
  %retval.sroa.0.0.i = phi ptr [ %incdec.ptr.i.i.i, %while.body.i.i.i ], [ %0, %entry ]
  %2 = load ptr, ptr %retval.sroa.0.0.i, align 8
  %switch.i.i.i = icmp ult ptr %2, inttoptr (i64 2 to ptr)
  br i1 %switch.i.i.i, label %while.body.i.i.i, label %_ZNK14core_hashtableI14obj_hash_entryIN7grobner8equationEE12obj_ptr_hashIS2_E6ptr_eqIS2_EE5beginEv.exit

while.body.i.i.i:                                 ; preds = %land.rhs.i.i.i
  %incdec.ptr.i.i.i = getelementptr inbounds i8, ptr %retval.sroa.0.0.i, i64 8
  %cmp.not.i.i.i = icmp eq ptr %incdec.ptr.i.i.i, %add.ptr.i
  br i1 %cmp.not.i.i.i, label %for.end, label %land.rhs.i.i.i, !llvm.loop !14

_ZNK14core_hashtableI14obj_hash_entryIN7grobner8equationEE12obj_ptr_hashIS2_E6ptr_eqIS2_EE5beginEv.exit: ; preds = %land.rhs.i.i.i, %entry
  %retval.sroa.0.1.i = phi ptr [ %0, %entry ], [ %retval.sroa.0.0.i, %land.rhs.i.i.i ]
  %cmp.i.not12 = icmp eq ptr %retval.sroa.0.1.i, %add.ptr.i
  br i1 %cmp.i.not12, label %for.end, label %for.body

for.body:                                         ; preds = %_ZNK14core_hashtableI14obj_hash_entryIN7grobner8equationEE12obj_ptr_hashIS2_E6ptr_eqIS2_EE5beginEv.exit, %_ZN14core_hashtableI14obj_hash_entryIN7grobner8equationEE12obj_ptr_hashIS2_E6ptr_eqIS2_EE8iteratorppEv.exit
  %__begin1.sroa.0.013 = phi ptr [ %__begin1.sroa.0.1, %_ZN14core_hashtableI14obj_hash_entryIN7grobner8equationEE12obj_ptr_hashIS2_E6ptr_eqIS2_EE8iteratorppEv.exit ], [ %retval.sroa.0.1.i, %_ZNK14core_hashtableI14obj_hash_entryIN7grobner8equationEE12obj_ptr_hashIS2_E6ptr_eqIS2_EE5beginEv.exit ]
  %3 = load ptr, ptr %__begin1.sroa.0.013, align 8
  %4 = load ptr, ptr %result, align 8
  %cmp.i7 = icmp eq ptr %4, null
  br i1 %cmp.i7, label %if.then.i, label %lor.lhs.false.i

lor.lhs.false.i:                                  ; preds = %for.body
  %arrayidx.i = getelementptr inbounds i8, ptr %4, i64 -4
  %5 = load i32, ptr %arrayidx.i, align 4
  %arrayidx4.i = getelementptr inbounds i8, ptr %4, i64 -8
  %6 = load i32, ptr %arrayidx4.i, align 4
  %cmp5.i = icmp eq i32 %5, %6
  br i1 %cmp5.i, label %if.then.i, label %_ZN6vectorIPN7grobner8equationELb0EjE9push_backERKS2_.exit

if.then.i:                                        ; preds = %lor.lhs.false.i, %for.body
  tail call void @_ZN6vectorIPN7grobner8equationELb0EjE13expand_vectorEv(ptr noundef nonnull align 8 dereferenceable(8) %result)
  %.pre.i = load ptr, ptr %result, align 8
  %arrayidx8.phi.trans.insert.i = getelementptr inbounds i8, ptr %.pre.i, i64 -4
  %.pre1.i = load i32, ptr %arrayidx8.phi.trans.insert.i, align 4
  br label %_ZN6vectorIPN7grobner8equationELb0EjE9push_backERKS2_.exit

_ZN6vectorIPN7grobner8equationELb0EjE9push_backERKS2_.exit: ; preds = %lor.lhs.false.i, %if.then.i
  %7 = phi i32 [ %.pre1.i, %if.then.i ], [ %5, %lor.lhs.false.i ]
  %8 = phi ptr [ %.pre.i, %if.then.i ], [ %4, %lor.lhs.false.i ]
  %idx.ext.i8 = zext i32 %7 to i64
  %add.ptr.i9 = getelementptr inbounds ptr, ptr %8, i64 %idx.ext.i8
  store ptr %3, ptr %add.ptr.i9, align 8
  %9 = load ptr, ptr %result, align 8
  %arrayidx10.i = getelementptr inbounds i8, ptr %9, i64 -4
  %10 = load i32, ptr %arrayidx10.i, align 4
  %inc.i = add i32 %10, 1
  store i32 %inc.i, ptr %arrayidx10.i, align 4
  %incdec.ptr.i = getelementptr inbounds i8, ptr %__begin1.sroa.0.013, i64 8
  %cmp.not2.i.i = icmp eq ptr %incdec.ptr.i, %add.ptr.i
  br i1 %cmp.not2.i.i, label %for.end, label %land.rhs.i.i

land.rhs.i.i:                                     ; preds = %_ZN6vectorIPN7grobner8equationELb0EjE9push_backERKS2_.exit, %while.body.i.i
  %__begin1.sroa.0.1 = phi ptr [ %incdec.ptr.i.i, %while.body.i.i ], [ %incdec.ptr.i, %_ZN6vectorIPN7grobner8equationELb0EjE9push_backERKS2_.exit ]
  %11 = load ptr, ptr %__begin1.sroa.0.1, align 8
  %switch.i.i = icmp ult ptr %11, inttoptr (i64 2 to ptr)
  br i1 %switch.i.i, label %while.body.i.i, label %_ZN14core_hashtableI14obj_hash_entryIN7grobner8equationEE12obj_ptr_hashIS2_E6ptr_eqIS2_EE8iteratorppEv.exit

while.body.i.i:                                   ; preds = %land.rhs.i.i
  %incdec.ptr.i.i = getelementptr inbounds i8, ptr %__begin1.sroa.0.1, i64 8
  %cmp.not.i.i = icmp eq ptr %incdec.ptr.i.i, %add.ptr.i
  br i1 %cmp.not.i.i, label %for.end, label %land.rhs.i.i, !llvm.loop !14

_ZN14core_hashtableI14obj_hash_entryIN7grobner8equationEE12obj_ptr_hashIS2_E6ptr_eqIS2_EE8iteratorppEv.exit: ; preds = %land.rhs.i.i
  %cmp.i.not = icmp eq ptr %__begin1.sroa.0.1, %add.ptr.i
  br i1 %cmp.i.not, label %for.end, label %for.body

for.end:                                          ; preds = %while.body.i.i.i, %_ZN6vectorIPN7grobner8equationELb0EjE9push_backERKS2_.exit, %_ZN14core_hashtableI14obj_hash_entryIN7grobner8equationEE12obj_ptr_hashIS2_E6ptr_eqIS2_EE8iteratorppEv.exit, %while.body.i.i, %_ZNK14core_hashtableI14obj_hash_entryIN7grobner8equationEE12obj_ptr_hashIS2_E6ptr_eqIS2_EE5beginEv.exit
  ret void
}